; Function Attrs: mustprogress uwtable
define noundef zeroext i1 @_ZNK7openvdb5v11_06points26StringAttributeWriteHandle8containsERKNSt7__cxx1112basic_stringIcSt11char_traitsIcESaIcEEE(ptr noundef nonnull align 8 dereferenceable(224) %this, ptr noundef nonnull align 8 dereferenceable(32) %name) local_unnamed_addr #3 align 2 {
entry:
  %call = tail call noundef zeroext i1 @_ZNKSt7__cxx1112basic_stringIcSt11char_traitsIcESaIcEE5emptyEv(ptr noundef nonnull align 8 dereferenceable(32) %name) #23
  br i1 %call, label %return, label %if.end

if.end:                                           ; preds = %entry
  %mCache = getelementptr inbounds i8, ptr %this, i64 88
  %call.i = tail call ptr @_ZNKSt10_HashtableINSt7__cxx1112basic_stringIcSt11char_traitsIcESaIcEEESt4pairIKS5_jESaIS8_ENSt8__detail10_Select1stESt8equal_toIS5_ESt4hashIS5_ENSA_18_Mod_range_hashingENSA_20_Default_ranged_hashENSA_20_Prime_rehash_policyENSA_17_Hashtable_traitsILb1ELb0ELb1EEEE4findERS7_(ptr noundef nonnull align 8 dereferenceable(56) %mCache, ptr noundef nonnull align 8 dereferenceable(32) %name)
  %cmp.i = icmp ne ptr %call.i, null
  br label %return

return:                                           ; preds = %entry, %if.end
  %retval.0 = phi i1 [ %cmp.i, %if.end ], [ true, %entry ]
  ret i1 %retval.0
}